target datalayout = "e-m:e-p270:32:32-p271:32:32-p272:64:64-i64:64-i128:128-f80:128-n8:16:32:64-S128"
target triple = "x86_64-pc-linux-gnu"

%class.FrameInformation = type { %class.QObject, %class.IDataPrintable, ptr, ptr, ptr, %struct.wtap_rec, %struct.Buffer }
%class.QObject = type { ptr, %class.QScopedPointer }
%class.QScopedPointer = type { ptr }
%class.IDataPrintable = type { ptr }
%struct.wtap_rec = type { i32, i32, i32, %struct.nstime_t, i32, %struct.nstime_t, i32, %union.anon, ptr, i32, %struct.Buffer }
%struct.nstime_t = type { i64, i32 }
%union.anon = type { %struct.wtap_packet_header }
%struct.wtap_packet_header = type { i32, i32, i32, i32, %union.wtap_pseudo_header }
%union.wtap_pseudo_header = type { %struct.erf_mc_phdr }
%struct.erf_mc_phdr = type { %struct.erf_phdr, [16 x %struct.erf_ehdr], %union.anon.1 }
%struct.erf_phdr = type { i64, i8, i8, i16, i16, i16 }
%struct.erf_ehdr = type { i64 }
%union.anon.1 = type { i32 }
%struct.Buffer = type { ptr, i64, i64, i64 }

@_ZTV16FrameInformation = external unnamed_addr constant { [15 x ptr], [5 x ptr] }, align 8
@_ZTV14IDataPrintable = linkonce_odr unnamed_addr constant { [5 x ptr] } { [5 x ptr] [ptr null, ptr @_ZTI14IDataPrintable, ptr @_ZN14IDataPrintableD2Ev, ptr @_ZN14IDataPrintableD0Ev, ptr @__cxa_pure_virtual] }, comdat, align 8

; Function Attrs: mustprogress nounwind uwtable
define linkonce_odr void @_ZN14IDataPrintableD2Ev(ptr noundef nonnull align 8 dereferenceable(8) %0) unnamed_addr #2 comdat align 2 {
  %2 = alloca ptr, align 8
  store ptr %0, ptr %2, align 8
  ret void
}

; Function Attrs: mustprogress nounwind uwtable
define linkonce_odr void @_ZN14IDataPrintableC2Ev(ptr noundef nonnull align 8 dereferenceable(8) %0) unnamed_addr #2 comdat align 2 {
  %2 = alloca ptr, align 8
  store ptr %0, ptr %2, align 8
  %3 = load ptr, ptr %2, align 8
  store ptr getelementptr inbounds ({ [5 x ptr] }, ptr @_ZTV14IDataPrintable, i32 0, i32 0, i32 2), ptr %3, align 8
  ret void
}

; Function Attrs: mustprogress uwtable
define void @_ZN16FrameInformationC2EP11CaptureFileP11_frame_dataP7QObject(ptr noundef nonnull align 8 dereferenceable(360) %0, ptr noundef %1, ptr noundef %2, ptr noundef %3) unnamed_addr #0 align 2 personality ptr @__gxx_personality_v0 {
  %5 = alloca ptr, align 8
  %6 = alloca ptr, align 8
  %7 = alloca ptr, align 8
  %8 = alloca ptr, align 8
  %9 = alloca ptr, align 8
  %10 = alloca i32, align 4
  store ptr %0, ptr %5, align 8
  store ptr %1, ptr %6, align 8
  store ptr %2, ptr %7, align 8
  store ptr %3, ptr %8, align 8
  %11 = load ptr, ptr %5, align 8
  %12 = load ptr, ptr %8, align 8
  call void @_ZN7QObjectC2EPS_(ptr noundef nonnull align 8 dereferenceable(16) %11, ptr noundef %12)
  %13 = getelementptr inbounds i8, ptr %11, i64 16
  call void @_ZN14IDataPrintableC2Ev(ptr noundef nonnull align 8 dereferenceable(8) %13) #10
  store ptr getelementptr inbounds ({ [15 x ptr], [5 x ptr] }, ptr @_ZTV16FrameInformation, i32 0, i32 0, i32 2), ptr %11, align 8
  %14 = getelementptr inbounds i8, ptr %11, i64 16
  store ptr getelementptr inbounds ({ [15 x ptr], [5 x ptr] }, ptr @_ZTV16FrameInformation, i32 0, i32 1, i32 2), ptr %14, align 8
  %15 = getelementptr inbounds %class.FrameInformation, ptr %11, i32 0, i32 2
  %16 = load ptr, ptr %7, align 8
  store ptr %16, ptr %15, align 8
  %17 = getelementptr inbounds %class.FrameInformation, ptr %11, i32 0, i32 3
  %18 = load ptr, ptr %6, align 8
  store ptr %18, ptr %17, align 8
  %19 = getelementptr inbounds %class.FrameInformation, ptr %11, i32 0, i32 4
  store ptr null, ptr %19, align 8
  %20 = getelementptr inbounds %class.FrameInformation, ptr %11, i32 0, i32 5
  invoke void @wtap_rec_init(ptr noundef %20)
          to label %21 unwind label %25

21:                                               ; preds = %4
  %22 = getelementptr inbounds %class.FrameInformation, ptr %11, i32 0, i32 6
  invoke void @ws_buffer_init(ptr noundef %22, i64 noundef 1514)
          to label %23 unwind label %25

23:                                               ; preds = %21
  invoke void @_ZN16FrameInformation13loadFrameTreeEv(ptr noundef nonnull align 8 dereferenceable(360) %11)
          to label %24 unwind label %25

24:                                               ; preds = %23
  ret void

25:                                               ; preds = %23, %21, %4
  %26 = landingpad { ptr, i32 }
          cleanup
  %27 = extractvalue { ptr, i32 } %26, 0
  store ptr %27, ptr %9, align 8
  %28 = extractvalue { ptr, i32 } %26, 1
  store i32 %28, ptr %10, align 4
  %29 = getelementptr inbounds i8, ptr %11, i64 16
  call void @_ZN14IDataPrintableD2Ev(ptr noundef nonnull align 8 dereferenceable(8) %29) #10
  call void @_ZN7QObjectD2Ev(ptr noundef nonnull align 8 dereferenceable(16) %11) #10
  br label %30

30:                                               ; preds = %25
  %31 = load ptr, ptr %9, align 8
  %32 = load i32, ptr %10, align 4
  %33 = insertvalue { ptr, i32 } poison, ptr %31, 0
  %34 = insertvalue { ptr, i32 } %33, i32 %32, 1
  resume { ptr, i32 } %34
}