; Function Attrs: mustprogress uwtable
define void @_ZN16FrameInformationC2EP11CaptureFileP11_frame_dataP7QObject(ptr noundef nonnull align 8 dereferenceable(360) %0, ptr noundef %1, ptr noundef %2, ptr noundef %3) unnamed_addr #0 align 2 personality ptr @__gxx_personality_v0 {
  tail call void @_ZN7QObjectC2EPS_(ptr noundef nonnull align 8 dereferenceable(16) %0, ptr noundef %3)
  %5 = getelementptr inbounds i8, ptr %0, i64 16
  store ptr getelementptr inbounds ({ [15 x ptr], [5 x ptr] }, ptr @_ZTV16FrameInformation, i64 0, i32 0, i64 2), ptr %0, align 8
  store ptr getelementptr inbounds ({ [15 x ptr], [5 x ptr] }, ptr @_ZTV16FrameInformation, i64 0, i32 1, i64 2), ptr %5, align 8
  %6 = getelementptr inbounds i8, ptr %0, i64 24
  store ptr %2, ptr %6, align 8
  %7 = getelementptr inbounds i8, ptr %0, i64 32
  store ptr %1, ptr %7, align 8
  %8 = getelementptr inbounds i8, ptr %0, i64 40
  store ptr null, ptr %8, align 8
  %9 = getelementptr inbounds i8, ptr %0, i64 48
  invoke void @wtap_rec_init(ptr noundef nonnull %9)
          to label %10 unwind label %14

10:                                               ; preds = %4
  %11 = getelementptr inbounds i8, ptr %0, i64 328
  invoke void @ws_buffer_init(ptr noundef nonnull %11, i64 noundef 1514)
          to label %12 unwind label %14

12:                                               ; preds = %10
  invoke void @_ZN16FrameInformation13loadFrameTreeEv(ptr noundef nonnull align 8 dereferenceable(360) %0)
          to label %13 unwind label %14

13:                                               ; preds = %12
  ret void

14:                                               ; preds = %12, %10, %4
  %15 = landingpad { ptr, i32 }
          cleanup
  tail call void @_ZN7QObjectD2Ev(ptr noundef nonnull align 8 dereferenceable(16) %0) #13
  resume { ptr, i32 } %15
}